target datalayout = "e-m:e-p270:32:32-p271:32:32-p272:64:64-i64:64-i128:128-f80:128-n8:16:32:64-S128"
target triple = "x86_64-pc-linux-gnu"

%struct.commit = type { %struct.object, i64, ptr, ptr, i32 }
%struct.object = type { i32, %struct.object_id }
%struct.object_id = type { [32 x i8], i32 }

; Function Attrs: nounwind uwtable
define dso_local i32 @compare_commits_by_gen_then_commit_date(ptr noundef %0, ptr noundef %1, ptr noundef %2) #0 {
  %4 = alloca i32, align 4
  %5 = alloca ptr, align 8
  %6 = alloca ptr, align 8
  %7 = alloca ptr, align 8
  %8 = alloca ptr, align 8
  %9 = alloca ptr, align 8
  %10 = alloca i64, align 8
  %11 = alloca i64, align 8
  %12 = alloca i32, align 4
  store ptr %0, ptr %5, align 8, !tbaa !48
  store ptr %1, ptr %6, align 8, !tbaa !48
  store ptr %2, ptr %7, align 8, !tbaa !48
  call void @llvm.lifetime.start.p0(i64 8, ptr %8) #11
  %13 = load ptr, ptr %5, align 8, !tbaa !48
  store ptr %13, ptr %8, align 8, !tbaa !17
  call void @llvm.lifetime.start.p0(i64 8, ptr %9) #11
  %14 = load ptr, ptr %6, align 8, !tbaa !48
  store ptr %14, ptr %9, align 8, !tbaa !17
  call void @llvm.lifetime.start.p0(i64 8, ptr %10) #11
  %15 = load ptr, ptr %8, align 8, !tbaa !17
  %16 = call i64 @commit_graph_generation(ptr noundef %15)
  store i64 %16, ptr %10, align 8, !tbaa !47
  call void @llvm.lifetime.start.p0(i64 8, ptr %11) #11
  %17 = load ptr, ptr %9, align 8, !tbaa !17
  %18 = call i64 @commit_graph_generation(ptr noundef %17)
  store i64 %18, ptr %11, align 8, !tbaa !47
  %19 = load i64, ptr %10, align 8, !tbaa !47
  %20 = load i64, ptr %11, align 8, !tbaa !47
  %21 = icmp ult i64 %19, %20
  br i1 %21, label %22, label %23

22:                                               ; preds = %3
  store i32 1, ptr %4, align 4
  store i32 1, ptr %12, align 4
  br label %49

23:                                               ; preds = %3
  %24 = load i64, ptr %10, align 8, !tbaa !47
  %25 = load i64, ptr %11, align 8, !tbaa !47
  %26 = icmp ugt i64 %24, %25
  br i1 %26, label %27, label %28

27:                                               ; preds = %23
  store i32 -1, ptr %4, align 4
  store i32 1, ptr %12, align 4
  br label %49

28:                                               ; preds = %23
  br label %29

29:                                               ; preds = %28
  %30 = load ptr, ptr %8, align 8, !tbaa !17
  %31 = getelementptr inbounds nuw %struct.commit, ptr %30, i32 0, i32 1
  %32 = load i64, ptr %31, align 8, !tbaa !104
  %33 = load ptr, ptr %9, align 8, !tbaa !17
  %34 = getelementptr inbounds nuw %struct.commit, ptr %33, i32 0, i32 1
  %35 = load i64, ptr %34, align 8, !tbaa !104
  %36 = icmp ult i64 %32, %35
  br i1 %36, label %37, label %38

37:                                               ; preds = %29
  store i32 1, ptr %4, align 4
  store i32 1, ptr %12, align 4
  br label %49

38:                                               ; preds = %29
  %39 = load ptr, ptr %8, align 8, !tbaa !17
  %40 = getelementptr inbounds nuw %struct.commit, ptr %39, i32 0, i32 1
  %41 = load i64, ptr %40, align 8, !tbaa !104
  %42 = load ptr, ptr %9, align 8, !tbaa !17
  %43 = getelementptr inbounds nuw %struct.commit, ptr %42, i32 0, i32 1
  %44 = load i64, ptr %43, align 8, !tbaa !104
  %45 = icmp ugt i64 %41, %44
  br i1 %45, label %46, label %47

46:                                               ; preds = %38
  store i32 -1, ptr %4, align 4
  store i32 1, ptr %12, align 4
  br label %49

47:                                               ; preds = %38
  br label %48

48:                                               ; preds = %47
  store i32 0, ptr %4, align 4
  store i32 1, ptr %12, align 4
  br label %49

49:                                               ; preds = %48, %46, %37, %27, %22
  call void @llvm.lifetime.end.p0(i64 8, ptr %11) #11
  call void @llvm.lifetime.end.p0(i64 8, ptr %10) #11
  call void @llvm.lifetime.end.p0(i64 8, ptr %9) #11
  call void @llvm.lifetime.end.p0(i64 8, ptr %8) #11
  %50 = load i32, ptr %4, align 4
  ret i32 %50
}